target datalayout = "e-m:e-p270:32:32-p271:32:32-p272:64:64-i64:64-i128:128-f80:128-n8:16:32:64-S128"
target triple = "x86_64-pc-linux-gnu"

%struct.SDL_VideoDevice = type { ptr, ptr, ptr, ptr, ptr, ptr, ptr, ptr, ptr, ptr, ptr, ptr, ptr, ptr, ptr, ptr, ptr, ptr, ptr, ptr, ptr, ptr, ptr, ptr, ptr, ptr, ptr, ptr, ptr, ptr, ptr, ptr, ptr, ptr, ptr, ptr, ptr, ptr, ptr, ptr, ptr, ptr, ptr, ptr, ptr, ptr, ptr, ptr, ptr, ptr, ptr, ptr, ptr, ptr, ptr, ptr, ptr, ptr, ptr, ptr, ptr, ptr, ptr, ptr, ptr, ptr, ptr, ptr, ptr, ptr, ptr, ptr, ptr, ptr, ptr, ptr, ptr, ptr, ptr, ptr, ptr, ptr, ptr, ptr, ptr, ptr, ptr, ptr, ptr, ptr, ptr, ptr, ptr, ptr, ptr, ptr, ptr, i64, i8, i8, i8, ptr, i32, ptr, %struct.SDL_Rect, ptr, ptr, i32, ptr, ptr, ptr, ptr, i64, ptr, i8, i32, i32, %struct.anon, ptr, ptr, ptr, ptr, ptr, ptr, %struct.SDL_AtomicInt, %struct.SDL_AtomicInt, i8, %struct.anon.0, ptr, ptr, ptr, ptr, ptr }
%struct.SDL_Rect = type { i32, i32, i32, i32 }
%struct.anon = type { i32, i32, i32, i32, i32, i32, i32, i32, i32, i32, i32, i32, i32, i32, i32, i32, i32, i32, i32, i32, i32, i32, i32, i32, i32, i32, i32, i32, i32, [256 x i8], ptr }
%struct.SDL_AtomicInt = type { i32 }
%struct.anon.0 = type { ptr, ptr, i32, [256 x i8], ptr }
%struct.SDL_VideoData = type { ptr, ptr, i32, ptr, i64, i32, ptr, i32, i64, i64, %struct.X11_ClipboardData, %struct.X11_ClipboardData, ptr, i64, %struct.X11_SettingsData, i8, %struct.anon.1, [256 x i32], i8, i8, i8, i64, i8, %struct.SDL_Point, i32, ptr, i32, i8, i32, %struct.anon.2, i8, i64, ptr, ptr, i8, i8, i8 }
%struct.X11_ClipboardData = type { ptr, ptr, ptr, i64, i32 }
%struct.X11_SettingsData = type { ptr }
%struct.anon.1 = type { i64, i64, i64, i64, i64, i64, i64, i64, i64, i64, i64, i64, i64, i64, i64, i64, i64, i64, i64, i64, i64, i64, i64, i64, i64, i64, i64, i64, i64, i64, i64, i64, i64, i64, i64, i64, i64, i64, i64, i64, i64, i64, i64, i64, i64, i64, i64, i64, i64, i64, i64, i64, i64 }
%struct.SDL_Point = type { i32, i32 }
%struct.anon.2 = type { ptr, i32, i32, i32, i16, i32, i32 }
%struct.SDL_WindowData = type { ptr, i64, ptr, i64, i8, %struct.XShmSegmentInfo, ptr, ptr, ptr, i8, i32, i32, i32, i32, i8, i8, i8, i64, i32, i64, i8, %struct.SDL_Point, %struct.XConfigureEvent, %struct.XConfigureEvent, ptr, i64, i64, i64, i8, i64, ptr, i8, [4 x i64], %struct.SDL_Rect, i64, %struct._XSyncValue, i8, %struct.SDL_Rect, %struct.SDL_DisplayMode, i32, i32, i8, i8, i8, i8, i8, i8, i8, i8, i32, %struct.XPoint, ptr, ptr, i32, i32, i8 }
%struct.XShmSegmentInfo = type { i64, i32, ptr, i32 }
%struct.XConfigureEvent = type { i32, i64, i32, ptr, i64, i64, i32, i32, i32, i32, i32, i64, i32 }
%struct._XSyncValue = type { i32, i32 }
%struct.SDL_DisplayMode = type { i32, i32, i32, i32, float, float, i32, i32, ptr }
%struct.XPoint = type { i16, i16 }
%struct.SDL_Window = type { i32, ptr, ptr, i32, i32, i32, i32, i32, i32, i32, i32, float, float, i32, i32, i64, i64, float, i8, i8, i32, i32, %struct.SDL_Rect, %struct.SDL_Rect, %struct.SDL_Rect, i8, i8, i8, %struct.SDL_DisplayMode, %struct.SDL_DisplayMode, %struct.SDL_HDROutputProperties, float, ptr, i8, i8, i8, i8, i8, i8, i8, i8, i8, i32, i32, i32, i32, %struct.SDL_Rect, i32, i8, %struct.SDL_Rect, i32, %struct.SDL_Rect, ptr, ptr, i32, float, i32, i32, ptr, ptr, ptr, ptr, ptr, ptr, ptr, ptr, ptr }
%struct.SDL_HDROutputProperties = type { float, float }
%struct.SDL_Mouse = type { ptr, ptr, ptr, ptr, ptr, ptr, ptr, ptr, ptr, ptr, ptr, ptr, ptr, ptr, i8, float, float, ptr, float, float, float, float, float, float, float, float, double, double, i8, i8, i8, i8, i8, i8, i8, i8, i64, i8, float, i8, float, i8, i32, i32, i8, i8, i8, i8, i8, i8, i8, i8, i8, ptr, i32, ptr, ptr, ptr, ptr, i8, ptr }

@.str = private unnamed_addr constant [29 x i8] c"SDL_MOUSE_FOCUS_CLICKTHROUGH\00", align 1
@X11_XChangeProperty = external global ptr, align 8

; Function Attrs: nounwind uwtable
define internal void @X11_UpdateUserTime(ptr noundef %0, i64 noundef %1) #0 {
  %3 = alloca ptr, align 8
  %4 = alloca i64, align 8
  %5 = alloca ptr, align 8
  %6 = alloca ptr, align 8
  store ptr %0, ptr %3, align 8
  store i64 %1, ptr %4, align 8
  %7 = load i64, ptr %4, align 8
  %8 = icmp ne i64 %7, 0
  br i1 %8, label %9, label %35

9:                                                ; preds = %2
  %10 = load i64, ptr %4, align 8
  %11 = load ptr, ptr %3, align 8
  %12 = getelementptr inbounds nuw %struct.SDL_WindowData, ptr %11, i32 0, i32 25
  %13 = load i64, ptr %12, align 8
  %14 = icmp ne i64 %10, %13
  br i1 %14, label %15, label %35

15:                                               ; preds = %9
  call void @llvm.lifetime.start.p0(i64 8, ptr %5) #7
  %16 = load ptr, ptr %3, align 8
  %17 = getelementptr inbounds nuw %struct.SDL_WindowData, ptr %16, i32 0, i32 24
  %18 = load ptr, ptr %17, align 8
  store ptr %18, ptr %5, align 8
  call void @llvm.lifetime.start.p0(i64 8, ptr %6) #7
  %19 = load ptr, ptr %5, align 8
  %20 = getelementptr inbounds nuw %struct.SDL_VideoData, ptr %19, i32 0, i32 0
  %21 = load ptr, ptr %20, align 8
  store ptr %21, ptr %6, align 8
  %22 = load ptr, ptr @X11_XChangeProperty, align 8
  %23 = load ptr, ptr %6, align 8
  %24 = load ptr, ptr %3, align 8
  %25 = getelementptr inbounds nuw %struct.SDL_WindowData, ptr %24, i32 0, i32 1
  %26 = load i64, ptr %25, align 8
  %27 = load ptr, ptr %5, align 8
  %28 = getelementptr inbounds nuw %struct.SDL_VideoData, ptr %27, i32 0, i32 16
  %29 = getelementptr inbounds nuw %struct.anon.1, ptr %28, i32 0, i32 25
  %30 = load i64, ptr %29, align 8
  %31 = call i32 %22(ptr noundef %23, i64 noundef %26, i64 noundef %30, i64 noundef 6, i32 noundef 32, i32 noundef 0, ptr noundef %4, i32 noundef 1)
  %32 = load i64, ptr %4, align 8
  %33 = load ptr, ptr %3, align 8
  %34 = getelementptr inbounds nuw %struct.SDL_WindowData, ptr %33, i32 0, i32 25
  store i64 %32, ptr %34, align 8
  call void @llvm.lifetime.end.p0(i64 8, ptr %6) #7
  call void @llvm.lifetime.end.p0(i64 8, ptr %5) #7
  br label %35

35:                                               ; preds = %15, %9, %2
  ret void
}

; Function Attrs: nounwind uwtable
define internal zeroext i1 @X11_IsWheelEvent(ptr noundef %0, i32 noundef %1, ptr noundef %2, ptr noundef %3) #0 {
  %5 = alloca i1, align 1
  %6 = alloca ptr, align 8
  %7 = alloca i32, align 4
  %8 = alloca ptr, align 8
  %9 = alloca ptr, align 8
  store ptr %0, ptr %6, align 8
  store i32 %1, ptr %7, align 4
  store ptr %2, ptr %8, align 8
  store ptr %3, ptr %9, align 8
  %10 = load i32, ptr %7, align 4
  switch i32 %10, label %19 [
    i32 4, label %11
    i32 5, label %13
    i32 6, label %15
    i32 7, label %17
  ]

11:                                               ; preds = %4
  %12 = load ptr, ptr %9, align 8
  store i32 1, ptr %12, align 4
  store i1 true, ptr %5, align 1
  br label %21

13:                                               ; preds = %4
  %14 = load ptr, ptr %9, align 8
  store i32 -1, ptr %14, align 4
  store i1 true, ptr %5, align 1
  br label %21

15:                                               ; preds = %4
  %16 = load ptr, ptr %8, align 8
  store i32 1, ptr %16, align 4
  store i1 true, ptr %5, align 1
  br label %21

17:                                               ; preds = %4
  %18 = load ptr, ptr %8, align 8
  store i32 -1, ptr %18, align 4
  store i1 true, ptr %5, align 1
  br label %21

19:                                               ; preds = %4
  br label %20

20:                                               ; preds = %19
  store i1 false, ptr %5, align 1
  br label %21

21:                                               ; preds = %20, %17, %15, %13, %11
  %22 = load i1, ptr %5, align 1
  ret i1 %22
}

; Function Attrs: nounwind uwtable
define hidden zeroext i1 @X11_ProcessHitTest(ptr noundef %0, ptr noundef %1, float noundef %2, float noundef %3, i1 noundef zeroext %4) #0 {
  %6 = alloca i1, align 1
  %7 = alloca ptr, align 8
  %8 = alloca ptr, align 8
  %9 = alloca float, align 4
  %10 = alloca float, align 4
  %11 = alloca i8, align 1
  %12 = alloca ptr, align 8
  %13 = alloca i32, align 4
  %14 = alloca %struct.SDL_Point, align 4
  %15 = alloca i32, align 4
  store ptr %0, ptr %7, align 8
  store ptr %1, ptr %8, align 8
  store float %2, ptr %9, align 4
  store float %3, ptr %10, align 4
  %16 = zext i1 %4 to i8
  store i8 %16, ptr %11, align 1
  call void @llvm.lifetime.start.p0(i64 8, ptr %12) #7
  %17 = load ptr, ptr %8, align 8
  %18 = getelementptr inbounds nuw %struct.SDL_WindowData, ptr %17, i32 0, i32 0
  %19 = load ptr, ptr %18, align 8
  store ptr %19, ptr %12, align 8
  %20 = load ptr, ptr %12, align 8
  %21 = getelementptr inbounds nuw %struct.SDL_Window, ptr %20, i32 0, i32 52
  %22 = load ptr, ptr %21, align 8
  %23 = icmp ne ptr %22, null
  br i1 %23, label %25, label %24

24:                                               ; preds = %5
  store i1 false, ptr %6, align 1
  store i32 1, ptr %13, align 4
  br label %55

25:                                               ; preds = %5
  call void @llvm.lifetime.start.p0(i64 8, ptr %14) #7
  %26 = getelementptr inbounds nuw %struct.SDL_Point, ptr %14, i32 0, i32 0
  %27 = load float, ptr %9, align 4
  %28 = fptosi float %27 to i32
  store i32 %28, ptr %26, align 4
  %29 = getelementptr inbounds nuw %struct.SDL_Point, ptr %14, i32 0, i32 1
  %30 = load float, ptr %10, align 4
  %31 = fptosi float %30 to i32
  store i32 %31, ptr %29, align 4
  call void @llvm.lifetime.start.p0(i64 4, ptr %15) #7
  %32 = load ptr, ptr %12, align 8
  %33 = getelementptr inbounds nuw %struct.SDL_Window, ptr %32, i32 0, i32 52
  %34 = load ptr, ptr %33, align 8
  %35 = load ptr, ptr %12, align 8
  %36 = load ptr, ptr %12, align 8
  %37 = getelementptr inbounds nuw %struct.SDL_Window, ptr %36, i32 0, i32 53
  %38 = load ptr, ptr %37, align 8
  %39 = call i32 %34(ptr noundef %35, ptr noundef %14, ptr noundef %38)
  store i32 %39, ptr %15, align 4
  %40 = load i8, ptr %11, align 1, !range !3, !noundef !4
  %41 = trunc i8 %40 to i1
  br i1 %41, label %49, label %42

42:                                               ; preds = %25
  %43 = load i32, ptr %15, align 4
  %44 = load ptr, ptr %8, align 8
  %45 = getelementptr inbounds nuw %struct.SDL_WindowData, ptr %44, i32 0, i32 49
  %46 = load i32, ptr %45, align 8
  %47 = icmp eq i32 %43, %46
  br i1 %47, label %48, label %49

48:                                               ; preds = %42
  store i1 true, ptr %6, align 1
  store i32 1, ptr %13, align 4
  br label %54

49:                                               ; preds = %42, %25
  %50 = load i32, ptr %15, align 4
  call void @X11_SetHitTestCursor(i32 noundef %50)
  %51 = load i32, ptr %15, align 4
  %52 = load ptr, ptr %8, align 8
  %53 = getelementptr inbounds nuw %struct.SDL_WindowData, ptr %52, i32 0, i32 49
  store i32 %51, ptr %53, align 8
  store i1 true, ptr %6, align 1
  store i32 1, ptr %13, align 4
  br label %54

54:                                               ; preds = %49, %48
  call void @llvm.lifetime.end.p0(i64 4, ptr %15) #7
  call void @llvm.lifetime.end.p0(i64 8, ptr %14) #7
  br label %55

55:                                               ; preds = %54, %24
  call void @llvm.lifetime.end.p0(i64 8, ptr %12) #7
  %56 = load i1, ptr %6, align 1
  ret i1 %56
}

; Function Attrs: nounwind uwtable
define hidden i64 @X11_GetEventTimestamp(i64 noundef %0) #0 {
  %2 = alloca i64, align 8
  store i64 %0, ptr %2, align 8
  %3 = call i64 @SDL_GetTicksNS_REAL()
  ret i64 %3
}

; Function Attrs: nounwind uwtable
define hidden void @X11_HandleButtonPress(ptr noundef %0, ptr noundef %1, i32 noundef %2, i32 noundef %3, float noundef %4, float noundef %5, i64 noundef %6) #0 {
  %8 = alloca ptr, align 8
  %9 = alloca ptr, align 8
  %10 = alloca i32, align 4
  %11 = alloca i32, align 4
  %12 = alloca float, align 4
  %13 = alloca float, align 4
  %14 = alloca i64, align 8
  %15 = alloca ptr, align 8
  %16 = alloca ptr, align 8
  %17 = alloca ptr, align 8
  %18 = alloca i32, align 4
  %19 = alloca i32, align 4
  %20 = alloca i64, align 8
  %21 = alloca ptr, align 8
  %22 = alloca i8, align 1
  %23 = alloca i32, align 4
  %24 = alloca i32, align 4
  store ptr %0, ptr %8, align 8
  store ptr %1, ptr %9, align 8
  store i32 %2, ptr %10, align 4
  store i32 %3, ptr %11, align 4
  store float %4, ptr %12, align 4
  store float %5, ptr %13, align 4
  store i64 %6, ptr %14, align 8
  call void @llvm.lifetime.start.p0(i64 8, ptr %15) #7
  %25 = load ptr, ptr %9, align 8
  %26 = getelementptr inbounds nuw %struct.SDL_WindowData, ptr %25, i32 0, i32 0
  %27 = load ptr, ptr %26, align 8
  store ptr %27, ptr %15, align 8
  call void @llvm.lifetime.start.p0(i64 8, ptr %16) #7
  %28 = load ptr, ptr %8, align 8
  %29 = getelementptr inbounds nuw %struct.SDL_VideoDevice, ptr %28, i32 0, i32 128
  %30 = load ptr, ptr %29, align 8
  store ptr %30, ptr %16, align 8
  call void @llvm.lifetime.start.p0(i64 8, ptr %17) #7
  %31 = load ptr, ptr %16, align 8
  %32 = getelementptr inbounds nuw %struct.SDL_VideoData, ptr %31, i32 0, i32 0
  %33 = load ptr, ptr %32, align 8
  store ptr %33, ptr %17, align 8
  call void @llvm.lifetime.start.p0(i64 4, ptr %18) #7
  store i32 0, ptr %18, align 4
  call void @llvm.lifetime.start.p0(i64 4, ptr %19) #7
  store i32 0, ptr %19, align 4
  call void @llvm.lifetime.start.p0(i64 8, ptr %20) #7
  %34 = load i64, ptr %14, align 8
  %35 = call i64 @X11_GetEventTimestamp(i64 noundef %34)
  store i64 %35, ptr %20, align 8
  call void @llvm.lifetime.start.p0(i64 8, ptr %21) #7
  %36 = call ptr @SDL_GetMouse()
  store ptr %36, ptr %21, align 8
  %37 = load ptr, ptr %21, align 8
  %38 = getelementptr inbounds nuw %struct.SDL_Mouse, ptr %37, i32 0, i32 29
  %39 = load i8, ptr %38, align 1, !range !3, !noundef !4
  %40 = trunc i8 %39 to i1
  br i1 %40, label %64, label %41

41:                                               ; preds = %7
  %42 = load float, ptr %12, align 4
  %43 = load ptr, ptr %21, align 8
  %44 = getelementptr inbounds nuw %struct.SDL_Mouse, ptr %43, i32 0, i32 18
  %45 = load float, ptr %44, align 8
  %46 = fcmp une float %42, %45
  br i1 %46, label %53, label %47

47:                                               ; preds = %41
  %48 = load float, ptr %13, align 4
  %49 = load ptr, ptr %21, align 8
  %50 = getelementptr inbounds nuw %struct.SDL_Mouse, ptr %49, i32 0, i32 19
  %51 = load float, ptr %50, align 4
  %52 = fcmp une float %48, %51
  br i1 %52, label %53, label %64

53:                                               ; preds = %47, %41
  %54 = load ptr, ptr %8, align 8
  %55 = load ptr, ptr %9, align 8
  %56 = load float, ptr %12, align 4
  %57 = load float, ptr %13, align 4
  %58 = call zeroext i1 @X11_ProcessHitTest(ptr noundef %54, ptr noundef %55, float noundef %56, float noundef %57, i1 noundef zeroext false)
  %59 = load i64, ptr %20, align 8
  %60 = load ptr, ptr %15, align 8
  %61 = load i32, ptr %10, align 4
  %62 = load float, ptr %12, align 4
  %63 = load float, ptr %13, align 4
  call void @SDL_SendMouseMotion(i64 noundef %59, ptr noundef %60, i32 noundef %61, i1 noundef zeroext false, float noundef %62, float noundef %63)
  br label %64

64:                                               ; preds = %53, %47, %7
  %65 = load ptr, ptr %17, align 8
  %66 = load i32, ptr %11, align 4
  %67 = call zeroext i1 @X11_IsWheelEvent(ptr noundef %65, i32 noundef %66, ptr noundef %18, ptr noundef %19)
  br i1 %67, label %68, label %77

68:                                               ; preds = %64
  %69 = load i64, ptr %20, align 8
  %70 = load ptr, ptr %15, align 8
  %71 = load i32, ptr %10, align 4
  %72 = load i32, ptr %18, align 4
  %73 = sub nsw i32 0, %72
  %74 = sitofp i32 %73 to float
  %75 = load i32, ptr %19, align 4
  %76 = sitofp i32 %75 to float
  call void @SDL_SendMouseWheel(i64 noundef %69, ptr noundef %70, i32 noundef %71, float noundef %74, float noundef %76, i32 noundef 0)
  br label %128

77:                                               ; preds = %64
  call void @llvm.lifetime.start.p0(i64 1, ptr %22) #7
  store i8 0, ptr %22, align 1
  %78 = load i32, ptr %11, align 4
  %79 = icmp sgt i32 %78, 7
  br i1 %79, label %80, label %83

80:                                               ; preds = %77
  %81 = load i32, ptr %11, align 4
  %82 = sub nsw i32 %81, 4
  store i32 %82, ptr %11, align 4
  br label %83

83:                                               ; preds = %80, %77
  %84 = load i32, ptr %11, align 4
  %85 = icmp eq i32 %84, 1
  br i1 %85, label %86, label %96

86:                                               ; preds = %83
  %87 = load ptr, ptr %8, align 8
  %88 = load ptr, ptr %9, align 8
  %89 = load float, ptr %12, align 4
  %90 = load float, ptr %13, align 4
  %91 = call zeroext i1 @X11_TriggerHitTestAction(ptr noundef %87, ptr noundef %88, float noundef %89, float noundef %90)
  br i1 %91, label %92, label %95

92:                                               ; preds = %86
  %93 = load ptr, ptr %15, align 8
  %94 = call zeroext i1 @SDL_SendWindowEvent(ptr noundef %93, i32 noundef 529, i32 noundef 0, i32 noundef 0)
  store i32 1, ptr %23, align 4
  br label %125

95:                                               ; preds = %86
  br label %96

96:                                               ; preds = %95, %83
  %97 = load ptr, ptr %9, align 8
  %98 = getelementptr inbounds nuw %struct.SDL_WindowData, ptr %97, i32 0, i32 17
  %99 = load i64, ptr %98, align 8
  %100 = icmp ne i64 %99, 0
  br i1 %100, label %101, label %115

101:                                              ; preds = %96
  call void @llvm.lifetime.start.p0(i64 4, ptr %24) #7
  store i32 10, ptr %24, align 4
  %102 = call i64 @SDL_GetTicks_REAL()
  %103 = load ptr, ptr %9, align 8
  %104 = getelementptr inbounds nuw %struct.SDL_WindowData, ptr %103, i32 0, i32 17
  %105 = load i64, ptr %104, align 8
  %106 = add i64 %105, 10
  %107 = icmp ult i64 %102, %106
  br i1 %107, label %108, label %112

108:                                              ; preds = %101
  %109 = call zeroext i1 @SDL_GetHintBoolean_REAL(ptr noundef @.str, i1 noundef zeroext false)
  %110 = xor i1 %109, true
  %111 = zext i1 %110 to i8
  store i8 %111, ptr %22, align 1
  br label %112

112:                                              ; preds = %108, %101
  %113 = load ptr, ptr %9, align 8
  %114 = getelementptr inbounds nuw %struct.SDL_WindowData, ptr %113, i32 0, i32 17
  store i64 0, ptr %114, align 8
  call void @llvm.lifetime.end.p0(i64 4, ptr %24) #7
  br label %115

115:                                              ; preds = %112, %96
  %116 = load i8, ptr %22, align 1, !range !3, !noundef !4
  %117 = trunc i8 %116 to i1
  br i1 %117, label %124, label %118

118:                                              ; preds = %115
  %119 = load i64, ptr %20, align 8
  %120 = load ptr, ptr %15, align 8
  %121 = load i32, ptr %10, align 4
  %122 = load i32, ptr %11, align 4
  %123 = trunc i32 %122 to i8
  call void @SDL_SendMouseButton(i64 noundef %119, ptr noundef %120, i32 noundef %121, i8 noundef zeroext %123, i1 noundef zeroext true)
  br label %124

124:                                              ; preds = %118, %115
  store i32 0, ptr %23, align 4
  br label %125

125:                                              ; preds = %124, %92
  call void @llvm.lifetime.end.p0(i64 1, ptr %22) #7
  %126 = load i32, ptr %23, align 4
  switch i32 %126, label %131 [
    i32 0, label %127
  ]

127:                                              ; preds = %125
  br label %128

128:                                              ; preds = %127, %68
  %129 = load ptr, ptr %9, align 8
  %130 = load i64, ptr %14, align 8
  call void @X11_UpdateUserTime(ptr noundef %129, i64 noundef %130)
  store i32 0, ptr %23, align 4
  br label %131

131:                                              ; preds = %128, %125
  call void @llvm.lifetime.end.p0(i64 8, ptr %21) #7
  call void @llvm.lifetime.end.p0(i64 8, ptr %20) #7
  call void @llvm.lifetime.end.p0(i64 4, ptr %19) #7
  call void @llvm.lifetime.end.p0(i64 4, ptr %18) #7
  call void @llvm.lifetime.end.p0(i64 8, ptr %17) #7
  call void @llvm.lifetime.end.p0(i64 8, ptr %16) #7
  call void @llvm.lifetime.end.p0(i64 8, ptr %15) #7
  %132 = load i32, ptr %23, align 4
  switch i32 %132, label %134 [
    i32 0, label %133
    i32 1, label %133
  ]

133:                                              ; preds = %131, %131
  ret void

134:                                              ; preds = %131
  unreachable
}