; Function Attrs: nounwind uwtable
define hidden void @X11_HandleButtonPress(ptr noundef readonly captures(none) %0, ptr noundef captures(none) %1, i32 noundef %2, i32 noundef %3, float noundef %4, float noundef %5, i64 noundef %6) local_unnamed_addr #1 {
  %8 = alloca i64, align 8
  %9 = alloca %struct.SDL_Point, align 4
  %10 = load ptr, ptr %1, align 8
  %11 = tail call i64 @SDL_GetTicksNS_REAL() #12
  %12 = tail call ptr @SDL_GetMouse() #12
  %13 = getelementptr inbounds nuw i8, ptr %12, i64 185
  %14 = load i8, ptr %13, align 1, !range !3, !noundef !4
  %15 = trunc nuw i8 %14 to i1
  br i1 %15, label %40, label %16

16:                                               ; preds = %7
  %17 = getelementptr inbounds nuw i8, ptr %12, i64 136
  %18 = load float, ptr %17, align 8
  %19 = fcmp une float %4, %18
  br i1 %19, label %24, label %20

20:                                               ; preds = %16
  %21 = getelementptr inbounds nuw i8, ptr %12, i64 140
  %22 = load float, ptr %21, align 4
  %23 = fcmp une float %5, %22
  br i1 %23, label %24, label %40

24:                                               ; preds = %20, %16
  %25 = load ptr, ptr %1, align 8
  %26 = getelementptr inbounds nuw i8, ptr %25, i64 352
  %27 = load ptr, ptr %26, align 8
  %.not.i.not = icmp eq ptr %27, null
  br i1 %.not.i.not, label %X11_ProcessHitTest.exit, label %28

28:                                               ; preds = %24
  call void @llvm.lifetime.start.p0(i64 8, ptr nonnull %9) #12
  %29 = fptosi float %4 to i32
  store i32 %29, ptr %9, align 4
  %30 = getelementptr inbounds nuw i8, ptr %9, i64 4
  %31 = fptosi float %5 to i32
  store i32 %31, ptr %30, align 4
  %32 = getelementptr inbounds nuw i8, ptr %25, i64 360
  %33 = load ptr, ptr %32, align 8
  %34 = call i32 %27(ptr noundef nonnull %25, ptr noundef nonnull %9, ptr noundef %33) #12
  %35 = getelementptr inbounds nuw i8, ptr %1, i64 544
  %36 = load i32, ptr %35, align 8
  %37 = icmp eq i32 %34, %36
  br i1 %37, label %39, label %38

38:                                               ; preds = %28
  call void @X11_SetHitTestCursor(i32 noundef %34) #12
  store i32 %34, ptr %35, align 8
  br label %39

39:                                               ; preds = %38, %28
  call void @llvm.lifetime.end.p0(i64 8, ptr nonnull %9) #12
  br label %X11_ProcessHitTest.exit

X11_ProcessHitTest.exit:                          ; preds = %24, %39
  call void @SDL_SendMouseMotion(i64 noundef %11, ptr noundef %10, i32 noundef %2, i1 noundef zeroext false, float noundef %4, float noundef %5) #12
  br label %40

40:                                               ; preds = %X11_ProcessHitTest.exit, %20, %7
  %switch.tableidx = add i32 %3, -4
  %41 = icmp ult i32 %switch.tableidx, 4
  br i1 %41, label %switch.lookup, label %X11_IsWheelEvent.exit

switch.lookup:                                    ; preds = %40
  %42 = zext nneg i32 %switch.tableidx to i64
  %switch.gep = getelementptr inbounds nuw [4 x float], ptr @switch.table.X11_HandleButtonPress, i64 0, i64 %42
  %switch.load = load float, ptr %switch.gep, align 4
  %43 = zext nneg i32 %switch.tableidx to i64
  %switch.gep57 = getelementptr inbounds nuw [4 x float], ptr @switch.table.X11_HandleButtonPress.7, i64 0, i64 %43
  %switch.load58 = load float, ptr %switch.gep57, align 4
  call void @SDL_SendMouseWheel(i64 noundef %11, ptr noundef %10, i32 noundef %2, float noundef %switch.load, float noundef %switch.load58, i32 noundef 0) #12
  br label %61

X11_IsWheelEvent.exit:                            ; preds = %40
  %44 = icmp sgt i32 %3, 7
  %45 = add nsw i32 %3, -4
  %spec.select = select i1 %44, i32 %45, i32 %3
  %46 = icmp eq i32 %spec.select, 1
  br i1 %46, label %47, label %50

47:                                               ; preds = %X11_IsWheelEvent.exit
  %48 = call zeroext i1 @X11_TriggerHitTestAction(ptr noundef %0, ptr noundef nonnull %1, float noundef %4, float noundef %5)
  br i1 %48, label %.critedge46, label %50

.critedge46:                                      ; preds = %47
  %49 = call zeroext i1 @SDL_SendWindowEvent(ptr noundef %10, i32 noundef 529, i32 noundef 0, i32 noundef 0) #12
  br label %76

50:                                               ; preds = %47, %X11_IsWheelEvent.exit
  %51 = getelementptr inbounds nuw i8, ptr %1, i64 120
  %52 = load i64, ptr %51, align 8
  %.not = icmp eq i64 %52, 0
  br i1 %.not, label %.critedge, label %53

53:                                               ; preds = %50
  %54 = call i64 @SDL_GetTicks_REAL() #12
  %55 = load i64, ptr %51, align 8
  %56 = add i64 %55, 10
  %57 = icmp ult i64 %54, %56
  br i1 %57, label %58, label %.critedge48

58:                                               ; preds = %53
  %59 = call zeroext i1 @SDL_GetHintBoolean_REAL(ptr noundef nonnull @.str, i1 noundef zeroext false) #12
  store i64 0, ptr %51, align 8
  br i1 %59, label %.critedge, label %61

.critedge48:                                      ; preds = %53
  store i64 0, ptr %51, align 8
  br label %.critedge

.critedge:                                        ; preds = %50, %.critedge48, %58
  %60 = trunc i32 %spec.select to i8
  call void @SDL_SendMouseButton(i64 noundef %11, ptr noundef %10, i32 noundef %2, i8 noundef zeroext %60, i1 noundef zeroext true) #12
  br label %61

61:                                               ; preds = %.critedge, %58, %switch.lookup
  call void @llvm.lifetime.start.p0(i64 8, ptr nonnull %8)
  store i64 %6, ptr %8, align 8
  %.not.i49 = icmp eq i64 %6, 0
  br i1 %.not.i49, label %X11_UpdateUserTime.exit, label %62

62:                                               ; preds = %61
  %63 = getelementptr inbounds nuw i8, ptr %1, i64 344
  %64 = load i64, ptr %63, align 8
  %.not7.i = icmp eq i64 %6, %64
  br i1 %.not7.i, label %X11_UpdateUserTime.exit, label %65

65:                                               ; preds = %62
  %66 = getelementptr inbounds nuw i8, ptr %1, i64 336
  %67 = load ptr, ptr %66, align 8
  %68 = load ptr, ptr %67, align 8
  %69 = load ptr, ptr @X11_XChangeProperty, align 8
  %70 = getelementptr inbounds nuw i8, ptr %1, i64 8
  %71 = load i64, ptr %70, align 8
  %72 = getelementptr inbounds nuw i8, ptr %67, i64 392
  %73 = load i64, ptr %72, align 8
  %74 = call i32 %69(ptr noundef %68, i64 noundef %71, i64 noundef %73, i64 noundef 6, i32 noundef 32, i32 noundef 0, ptr noundef nonnull %8, i32 noundef 1) #12
  %75 = load i64, ptr %8, align 8
  store i64 %75, ptr %63, align 8
  br label %X11_UpdateUserTime.exit

X11_UpdateUserTime.exit:                          ; preds = %61, %62, %65
  call void @llvm.lifetime.end.p0(i64 8, ptr nonnull %8)
  br label %76

76:                                               ; preds = %.critedge46, %X11_UpdateUserTime.exit
  ret void
}